; Function Attrs: mustprogress nounwind uwtable
define hidden void @_ZN4llvm13CodeViewDebug23collectLexicalBlockInfoERNS_15SmallVectorImplIPNS_12LexicalScopeEEERNS1_IPNS0_12LexicalBlockEEERNS1_INS0_13LocalVariableEEERNS1_INS0_16CVGlobalVariableEEE(ptr noundef nonnull align 8 dereferenceable(1312) %0, ptr noundef nonnull align 8 dereferenceable(16) %1, ptr noundef nonnull align 8 dereferenceable(16) %2, ptr noundef nonnull align 8 dereferenceable(16) %3, ptr noundef nonnull align 8 dereferenceable(16) %4) local_unnamed_addr #0 align 2 {
  %6 = load ptr, ptr %1, align 8
  %7 = tail call noundef i64 @_ZNK4llvm15SmallVectorBaseIjE4sizeEv(ptr noundef nonnull align 8 dereferenceable(16) %1) #23
  %8 = getelementptr inbounds ptr, ptr %6, i64 %7
  %.not12 = icmp eq i64 %7, 0
  br i1 %.not12, label %._crit_edge, label %.lr.ph

.lr.ph:                                           ; preds = %5, %.lr.ph
  %.013 = phi ptr [ %10, %.lr.ph ], [ %6, %5 ]
  %9 = load ptr, ptr %.013, align 8
  tail call void @_ZN4llvm13CodeViewDebug23collectLexicalBlockInfoERNS_12LexicalScopeERNS_15SmallVectorImplIPNS0_12LexicalBlockEEERNS3_INS0_13LocalVariableEEERNS3_INS0_16CVGlobalVariableEEE(ptr noundef nonnull align 8 dereferenceable(1312) %0, ptr noundef nonnull align 8 dereferenceable(184) %9, ptr noundef nonnull align 8 dereferenceable(16) %2, ptr noundef nonnull align 8 dereferenceable(16) %3, ptr noundef nonnull align 8 dereferenceable(16) %4)
  %10 = getelementptr inbounds nuw i8, ptr %.013, i64 8
  %.not = icmp eq ptr %10, %8
  br i1 %.not, label %._crit_edge, label %.lr.ph

._crit_edge:                                      ; preds = %.lr.ph, %5
  ret void
}